; Function Attrs: nounwind uwtable
define internal fastcc void @restrict_object_by_nodeset(ptr noundef %0, i64 noundef %1, ptr noundef captures(none) %2, ptr noundef %3, ptr noundef nonnull %4) unnamed_addr #5 {
  %6 = alloca ptr, align 8
  %7 = alloca ptr, align 8
  %8 = load ptr, ptr %2, align 8, !tbaa !50
  %9 = getelementptr inbounds nuw i8, ptr %8, i64 208
  %10 = load ptr, ptr %9, align 8, !tbaa !84
  %11 = tail call i32 @hwloc_bitmap_intersects(ptr noundef %10, ptr noundef nonnull %4) #36
  %.not = icmp eq i32 %11, 0
  br i1 %.not, label %18, label %12

12:                                               ; preds = %5
  %13 = getelementptr inbounds nuw i8, ptr %8, i64 200
  %14 = load ptr, ptr %13, align 8, !tbaa !83
  %15 = tail call i32 @hwloc_bitmap_andnot(ptr noundef %14, ptr noundef %14, ptr noundef nonnull %4) #34
  %16 = load ptr, ptr %9, align 8, !tbaa !84
  %17 = tail call i32 @hwloc_bitmap_andnot(ptr noundef %16, ptr noundef %16, ptr noundef nonnull %4) #34
  br label %18

18:                                               ; preds = %12, %5
  %.not62 = icmp eq ptr %3, null
  br i1 %.not62, label %28, label %19

19:                                               ; preds = %18
  %20 = getelementptr inbounds nuw i8, ptr %8, i64 192
  %21 = load ptr, ptr %20, align 8, !tbaa !54
  %22 = tail call i32 @hwloc_bitmap_intersects(ptr noundef %21, ptr noundef nonnull %3) #36
  %.not63 = icmp eq i32 %22, 0
  br i1 %.not63, label %28, label %.thread

.thread:                                          ; preds = %19
  %23 = getelementptr inbounds nuw i8, ptr %8, i64 184
  %24 = load ptr, ptr %23, align 8, !tbaa !45
  %25 = tail call i32 @hwloc_bitmap_andnot(ptr noundef %24, ptr noundef %24, ptr noundef nonnull %3) #34
  %26 = load ptr, ptr %20, align 8, !tbaa !54
  %27 = tail call i32 @hwloc_bitmap_andnot(ptr noundef %26, ptr noundef %26, ptr noundef nonnull %3) #34
  br label %29

28:                                               ; preds = %19, %18
  br i1 %.not, label %.loopexit, label %29

29:                                               ; preds = %.thread, %28
  %30 = getelementptr inbounds nuw i8, ptr %8, i64 120
  %.05983 = load ptr, ptr %30, align 8, !tbaa !50
  %.not6584 = icmp eq ptr %.05983, null
  br i1 %.not6584, label %._crit_edge, label %.lr.ph

.lr.ph:                                           ; preds = %29, %.lr.ph
  %.05986 = phi ptr [ %.059, %.lr.ph ], [ %.05983, %29 ]
  %.05785 = phi ptr [ %spec.select, %.lr.ph ], [ %30, %29 ]
  tail call fastcc void @restrict_object_by_nodeset(ptr noundef %0, i64 noundef %1, ptr noundef nonnull %.05785, ptr noundef %3, ptr noundef %4)
  %31 = load ptr, ptr %.05785, align 8, !tbaa !50
  %32 = icmp eq ptr %31, %.05986
  %33 = getelementptr inbounds nuw i8, ptr %.05986, i64 88
  %spec.select = select i1 %32, ptr %33, ptr %.05785
  %.059 = load ptr, ptr %spec.select, align 8, !tbaa !50
  %.not65 = icmp eq ptr %.059, null
  br i1 %.not65, label %._crit_edge, label %.lr.ph, !llvm.loop !215

._crit_edge:                                      ; preds = %.lr.ph, %29
  %34 = and i64 %1, 16
  %.not66 = icmp eq i64 %34, 0
  br i1 %.not66, label %36, label %35

35:                                               ; preds = %._crit_edge
  tail call void @hwloc__reorder_children(ptr noundef %8)
  br label %36

36:                                               ; preds = %35, %._crit_edge
  %37 = getelementptr inbounds nuw i8, ptr %8, i64 144
  %.16087 = load ptr, ptr %37, align 8, !tbaa !50
  %.not6788 = icmp eq ptr %.16087, null
  br i1 %.not6788, label %.loopexit, label %.lr.ph92

.lr.ph92:                                         ; preds = %36, %.lr.ph92
  %.16090 = phi ptr [ %.160, %.lr.ph92 ], [ %.16087, %36 ]
  %.289 = phi ptr [ %spec.select75, %.lr.ph92 ], [ %37, %36 ]
  tail call fastcc void @restrict_object_by_nodeset(ptr noundef %0, i64 noundef %1, ptr noundef nonnull %.289, ptr noundef %3, ptr noundef %4)
  %38 = load ptr, ptr %.289, align 8, !tbaa !50
  %39 = icmp eq ptr %38, %.16090
  %40 = getelementptr inbounds nuw i8, ptr %.16090, i64 88
  %spec.select75 = select i1 %39, ptr %40, ptr %.289
  %.160 = load ptr, ptr %spec.select75, align 8, !tbaa !50
  %.not67 = icmp eq ptr %.160, null
  br i1 %.not67, label %.loopexit, label %.lr.ph92, !llvm.loop !216

.loopexit:                                        ; preds = %.lr.ph92, %36, %28
  %41 = getelementptr inbounds nuw i8, ptr %8, i64 120
  %42 = load ptr, ptr %41, align 8, !tbaa !55
  %.not68 = icmp eq ptr %42, null
  br i1 %.not68, label %43, label %65

43:                                               ; preds = %.loopexit
  %44 = getelementptr inbounds nuw i8, ptr %8, i64 144
  %45 = load ptr, ptr %44, align 8, !tbaa !57
  %.not69 = icmp eq ptr %45, null
  br i1 %.not69, label %46, label %65

46:                                               ; preds = %43
  %47 = getelementptr inbounds nuw i8, ptr %8, i64 200
  %48 = load ptr, ptr %47, align 8, !tbaa !83
  %49 = tail call i32 @hwloc_bitmap_iszero(ptr noundef %48) #36
  %.not70 = icmp eq i32 %49, 0
  br i1 %.not70, label %65, label %50

50:                                               ; preds = %46
  %51 = load i32, ptr %8, align 8, !tbaa !35
  %.not71 = icmp eq i32 %51, 4
  %52 = and i64 %1, 16
  %.not72 = icmp eq i64 %52, 0
  %or.cond = and i1 %.not72, %.not71
  br i1 %or.cond, label %65, label %53

53:                                               ; preds = %50
  %54 = and i64 %1, 4
  %.not73 = icmp eq i64 %54, 0
  br i1 %.not73, label %55, label %58

55:                                               ; preds = %53
  %56 = getelementptr inbounds nuw i8, ptr %8, i64 160
  %57 = load ptr, ptr %56, align 8, !tbaa !58
  call void @llvm.lifetime.start.p0(i64 8, ptr nonnull %7)
  store ptr %57, ptr %7, align 8, !tbaa !50
  %.not1.i = icmp eq ptr %57, null
  br i1 %.not1.i, label %hwloc_free_object_siblings_and_children.exit, label %.lr.ph.i

.lr.ph.i:                                         ; preds = %55, %.lr.ph.i
  call fastcc void @unlink_and_free_object_and_children(ptr noundef nonnull %7)
  %.pr.i = load ptr, ptr %7, align 8, !tbaa !50
  %.not.i = icmp eq ptr %.pr.i, null
  br i1 %.not.i, label %hwloc_free_object_siblings_and_children.exit, label %.lr.ph.i, !llvm.loop !89

hwloc_free_object_siblings_and_children.exit:     ; preds = %.lr.ph.i, %55
  call void @llvm.lifetime.end.p0(i64 8, ptr nonnull %7)
  store ptr null, ptr %56, align 8, !tbaa !58
  br label %58

58:                                               ; preds = %hwloc_free_object_siblings_and_children.exit, %53
  %59 = and i64 %1, 2
  %.not74 = icmp eq i64 %59, 0
  br i1 %.not74, label %60, label %63

60:                                               ; preds = %58
  %61 = getelementptr inbounds nuw i8, ptr %8, i64 176
  %62 = load ptr, ptr %61, align 8, !tbaa !59
  call void @llvm.lifetime.start.p0(i64 8, ptr nonnull %6)
  store ptr %62, ptr %6, align 8, !tbaa !50
  %.not1.i76 = icmp eq ptr %62, null
  br i1 %.not1.i76, label %hwloc_free_object_siblings_and_children.exit80, label %.lr.ph.i77

.lr.ph.i77:                                       ; preds = %60, %.lr.ph.i77
  call fastcc void @unlink_and_free_object_and_children(ptr noundef nonnull %6)
  %.pr.i78 = load ptr, ptr %6, align 8, !tbaa !50
  %.not.i79 = icmp eq ptr %.pr.i78, null
  br i1 %.not.i79, label %hwloc_free_object_siblings_and_children.exit80, label %.lr.ph.i77, !llvm.loop !89

hwloc_free_object_siblings_and_children.exit80:   ; preds = %.lr.ph.i77, %60
  call void @llvm.lifetime.end.p0(i64 8, ptr nonnull %6)
  store ptr null, ptr %61, align 8, !tbaa !59
  br label %63

63:                                               ; preds = %hwloc_free_object_siblings_and_children.exit80, %58
  tail call fastcc void @unlink_and_free_single_object(ptr noundef nonnull %2)
  %64 = getelementptr inbounds nuw i8, ptr %0, i64 208
  store i64 1, ptr %64, align 8, !tbaa !60
  br label %65

65:                                               ; preds = %50, %63, %46, %43, %.loopexit
  ret void
}